; Function Attrs: mustprogress uwtable
define void @_ZNK5Ipopt14DenseSymMatrix14MultVectorImplEdRKNS_6VectorEdRS1_(ptr noundef nonnull readonly align 8 captures(none) dereferenceable(97) %0, double noundef %1, ptr noundef nonnull readonly align 8 captures(none) dereferenceable(205) %2, double noundef %3, ptr noundef nonnull align 8 dereferenceable(205) %4) unnamed_addr #1 align 2 {
  %6 = getelementptr inbounds nuw i8, ptr %0, i64 72
  %7 = load ptr, ptr %6, align 8, !tbaa !25
  %8 = getelementptr inbounds nuw i8, ptr %7, i64 12
  %9 = load i32, ptr %8, align 4, !tbaa !34
  %10 = getelementptr inbounds nuw i8, ptr %0, i64 88
  %11 = load ptr, ptr %10, align 8, !tbaa !35
  %12 = getelementptr inbounds nuw i8, ptr %0, i64 56
  %13 = load ptr, ptr %12, align 8, !tbaa !10
  %14 = getelementptr inbounds nuw i8, ptr %13, i64 12
  %15 = load i32, ptr %14, align 4, !tbaa !34
  %16 = getelementptr inbounds nuw i8, ptr %2, i64 216
  %17 = load ptr, ptr %16, align 8, !tbaa !37
  %18 = getelementptr inbounds nuw i8, ptr %4, i64 232
  %19 = load i8, ptr %18, align 8, !tbaa !46, !range !47, !noundef !48
  %20 = trunc nuw i8 %19 to i1
  br i1 %20, label %21, label %26

21:                                               ; preds = %5
  %22 = getelementptr inbounds nuw i8, ptr %4, i64 233
  %23 = load i8, ptr %22, align 1, !tbaa !49, !range !47, !noundef !48
  %24 = trunc nuw i8 %23 to i1
  br i1 %24, label %25, label %26

25:                                               ; preds = %21
  tail call void @_ZN5Ipopt11DenseVector22set_values_from_scalarEv(ptr noundef nonnull align 8 dereferenceable(248) %4)
  br label %26

26:                                               ; preds = %25, %21, %5
  tail call void @_ZN5Ipopt12TaggedObject13ObjectChangedEv(ptr noundef nonnull align 8 dereferenceable(248) %4)
  store i8 1, ptr %18, align 8, !tbaa !46
  %27 = getelementptr inbounds nuw i8, ptr %4, i64 233
  store i8 0, ptr %27, align 1, !tbaa !49
  %28 = getelementptr inbounds nuw i8, ptr %4, i64 216
  %29 = load ptr, ptr %28, align 8, !tbaa !37
  %30 = icmp eq ptr %29, null
  br i1 %30, label %31, label %_ZN5Ipopt11DenseVector6ValuesEv.exit

31:                                               ; preds = %26
  %32 = getelementptr inbounds nuw i8, ptr %4, i64 208
  %33 = load ptr, ptr %32, align 8, !tbaa !50
  %34 = getelementptr inbounds nuw i8, ptr %33, i64 12
  %35 = load i32, ptr %34, align 4, !tbaa !51
  %36 = icmp sgt i32 %35, 0
  br i1 %36, label %37, label %_ZNK5Ipopt16DenseVectorSpace23AllocateInternalStorageEv.exit.i.i

37:                                               ; preds = %31
  %38 = zext nneg i32 %35 to i64
  %39 = shl nuw nsw i64 %38, 3
  %40 = tail call noalias noundef nonnull ptr @_Znam(i64 noundef %39) #21
  br label %_ZNK5Ipopt16DenseVectorSpace23AllocateInternalStorageEv.exit.i.i

_ZNK5Ipopt16DenseVectorSpace23AllocateInternalStorageEv.exit.i.i: ; preds = %37, %31
  %.0.i.i.i = phi ptr [ %40, %37 ], [ null, %31 ]
  store ptr %.0.i.i.i, ptr %28, align 8, !tbaa !37
  br label %_ZN5Ipopt11DenseVector6ValuesEv.exit

_ZN5Ipopt11DenseVector6ValuesEv.exit:             ; preds = %26, %_ZNK5Ipopt16DenseVectorSpace23AllocateInternalStorageEv.exit.i.i
  %41 = phi ptr [ %29, %26 ], [ %.0.i.i.i, %_ZNK5Ipopt16DenseVectorSpace23AllocateInternalStorageEv.exit.i.i ]
  tail call void @_ZN5Ipopt10IpBlasSymvEidPKdiS1_idPdi(i32 noundef %9, double noundef %1, ptr noundef %11, i32 noundef %15, ptr noundef %17, i32 noundef 1, double noundef %3, ptr noundef %41, i32 noundef 1)
  ret void
}